target datalayout = "e-m:e-p270:32:32-p271:32:32-p272:64:64-i64:64-i128:128-f80:128-n8:16:32:64-S128"
target triple = "x86_64-pc-linux-gnu"

%struct.ObjectAddress = type { i32, i32, i32 }
%struct.RelationData = type { %struct.RelFileLocator, ptr, i32, i32, i8, i8, i8, i8, i8, i32, i32, i32, i32, ptr, ptr, i32, %struct.LockInfoData, ptr, ptr, ptr, ptr, ptr, i8, ptr, ptr, ptr, ptr, ptr, ptr, i32, ptr, i8, ptr, ptr, i32, i8, i32, ptr, i8, ptr, ptr, ptr, ptr, ptr, ptr, ptr, i32, ptr, ptr, ptr, ptr, ptr, ptr, ptr, ptr, ptr, ptr, ptr, ptr, ptr, ptr, ptr, ptr, ptr, ptr, ptr, i32, i8, ptr }
%struct.RelFileLocator = type { i32, i32, i32 }
%struct.LockInfoData = type { %struct.LockRelId }
%struct.LockRelId = type { i32, i32 }
%struct.ForeignDataWrapper = type { i32, i32, ptr, i32, i32, ptr }
%struct.CreateForeignServerStmt = type { i32, ptr, ptr, ptr, ptr, i8, ptr }

@.str.1 = private unnamed_addr constant [14 x i8] c"foreigncmds.c\00", align 1
@object_access_hook = external global ptr, align 8
@.str.15 = private unnamed_addr constant [37 x i8] c"server \22%s\22 already exists, skipping\00", align 1
@__func__.CreateForeignServer = private unnamed_addr constant [20 x i8] c"CreateForeignServer\00", align 1
@InvalidObjectAddress = external constant %struct.ObjectAddress, align 4
@.str.16 = private unnamed_addr constant [27 x i8] c"server \22%s\22 already exists\00", align 1

; Function Attrs: inlinehint nounwind uwtable
define internal ptr @DatumGetPointer(i64 noundef %0) #6 {
  %2 = alloca i64, align 8
  store i64 %0, ptr %2, align 8
  %3 = load i64, ptr %2, align 8
  %4 = inttoptr i64 %3 to ptr
  ret ptr %4
}

; Function Attrs: inlinehint nounwind uwtable
define internal i64 @PointerGetDatum(ptr noundef %0) #6 {
  %2 = alloca ptr, align 8
  store ptr %0, ptr %2, align 8
  %3 = load ptr, ptr %2, align 8
  %4 = ptrtoint ptr %3 to i64
  ret i64 %4
}

; Function Attrs: inlinehint nounwind uwtable
define internal i64 @CStringGetDatum(ptr noundef %0) #6 {
  %2 = alloca ptr, align 8
  store ptr %0, ptr %2, align 8
  %3 = load ptr, ptr %2, align 8
  %4 = call i64 @PointerGetDatum(ptr noundef %3)
  ret i64 %4
}

; Function Attrs: inlinehint nounwind uwtable
define internal i64 @ObjectIdGetDatum(i32 noundef %0) #6 {
  %2 = alloca i32, align 4
  store i32 %0, ptr %2, align 4
  %3 = load i32, ptr %2, align 4
  %4 = zext i32 %3 to i64
  ret i64 %4
}

; Function Attrs: nounwind uwtable
define dso_local { i64, i32 } @CreateForeignServer(ptr noundef %0) #0 {
  %2 = alloca %struct.ObjectAddress, align 4
  %3 = alloca ptr, align 8
  %4 = alloca ptr, align 8
  %5 = alloca i64, align 8
  %6 = alloca [8 x i64], align 16
  %7 = alloca [8 x i8], align 1
  %8 = alloca ptr, align 8
  %9 = alloca i32, align 4
  %10 = alloca i32, align 4
  %11 = alloca i32, align 4
  %12 = alloca %struct.ObjectAddress, align 4
  %13 = alloca %struct.ObjectAddress, align 4
  %14 = alloca ptr, align 8
  %15 = alloca i32, align 4
  %16 = alloca { i64, i32 }, align 8
  store ptr %0, ptr %3, align 8
  call void @llvm.lifetime.start.p0(i64 8, ptr %4) #9
  call void @llvm.lifetime.start.p0(i64 8, ptr %5) #9
  call void @llvm.lifetime.start.p0(i64 64, ptr %6) #9
  call void @llvm.lifetime.start.p0(i64 8, ptr %7) #9
  call void @llvm.lifetime.start.p0(i64 8, ptr %8) #9
  call void @llvm.lifetime.start.p0(i64 4, ptr %9) #9
  call void @llvm.lifetime.start.p0(i64 4, ptr %10) #9
  call void @llvm.lifetime.start.p0(i64 4, ptr %11) #9
  call void @llvm.lifetime.start.p0(i64 12, ptr %12) #9
  call void @llvm.lifetime.start.p0(i64 12, ptr %13) #9
  call void @llvm.lifetime.start.p0(i64 8, ptr %14) #9
  %17 = call ptr @table_open(i32 noundef 1417, i32 noundef 3)
  store ptr %17, ptr %4, align 8
  %18 = call i32 @GetUserId()
  store i32 %18, ptr %10, align 4
  %19 = load ptr, ptr %3, align 8
  %20 = getelementptr inbounds nuw %struct.CreateForeignServerStmt, ptr %19, i32 0, i32 1
  %21 = load ptr, ptr %20, align 8
  %22 = call i32 @get_foreign_server_oid(ptr noundef %21, i1 noundef zeroext true)
  store i32 %22, ptr %9, align 4
  %23 = load i32, ptr %9, align 4
  %24 = icmp ne i32 %23, 0
  br i1 %24, label %25, label %69

25:                                               ; preds = %1
  %26 = load ptr, ptr %3, align 8
  %27 = getelementptr inbounds nuw %struct.CreateForeignServerStmt, ptr %26, i32 0, i32 5
  %28 = load i8, ptr %27, align 8, !range !8, !noundef !9
  %29 = trunc i8 %28 to i1
  br i1 %29, label %30, label %53

30:                                               ; preds = %25
  br label %31

31:                                               ; preds = %30
  %32 = getelementptr inbounds nuw %struct.ObjectAddress, ptr %12, i32 0, i32 0
  store i32 1417, ptr %32, align 4
  %33 = load i32, ptr %9, align 4
  %34 = getelementptr inbounds nuw %struct.ObjectAddress, ptr %12, i32 0, i32 1
  store i32 %33, ptr %34, align 4
  %35 = getelementptr inbounds nuw %struct.ObjectAddress, ptr %12, i32 0, i32 2
  store i32 0, ptr %35, align 4
  br label %36

36:                                               ; preds = %31
  br label %37

37:                                               ; preds = %36
  call void @checkMembershipInCurrentExtension(ptr noundef %12)
  br label %38

38:                                               ; preds = %37
  br i1 false, label %39, label %41

39:                                               ; preds = %38
  %40 = call zeroext i1 @errstart_cold(i32 noundef 18, ptr noundef null) #11
  br i1 %40, label %43, label %49

41:                                               ; preds = %38
  %42 = call zeroext i1 @errstart(i32 noundef 18, ptr noundef null)
  br i1 %42, label %43, label %49

43:                                               ; preds = %41, %39
  %44 = call i32 @errcode(i32 noundef 290948)
  %45 = load ptr, ptr %3, align 8
  %46 = getelementptr inbounds nuw %struct.CreateForeignServerStmt, ptr %45, i32 0, i32 1
  %47 = load ptr, ptr %46, align 8
  %48 = call i32 (ptr, ...) @errmsg(ptr noundef @.str.15, ptr noundef %47)
  call void @errfinish(ptr noundef @.str.1, i32 noundef 877, ptr noundef @__func__.CreateForeignServer)
  br label %49

49:                                               ; preds = %43, %41, %39
  br label %50

50:                                               ; preds = %49
  br label %51

51:                                               ; preds = %50
  %52 = load ptr, ptr %4, align 8
  call void @table_close(ptr noundef %52, i32 noundef 3)
  call void @llvm.memcpy.p0.p0.i64(ptr align 4 %2, ptr align 4 @InvalidObjectAddress, i64 12, i1 false)
  store i32 1, ptr %15, align 4
  br label %184

53:                                               ; preds = %25
  br label %54

54:                                               ; preds = %53
  br i1 true, label %55, label %57

55:                                               ; preds = %54
  %56 = call zeroext i1 @errstart_cold(i32 noundef 21, ptr noundef null) #11
  br i1 %56, label %59, label %65

57:                                               ; preds = %54
  %58 = call zeroext i1 @errstart(i32 noundef 21, ptr noundef null)
  br i1 %58, label %59, label %65

59:                                               ; preds = %57, %55
  %60 = call i32 @errcode(i32 noundef 290948)
  %61 = load ptr, ptr %3, align 8
  %62 = getelementptr inbounds nuw %struct.CreateForeignServerStmt, ptr %61, i32 0, i32 1
  %63 = load ptr, ptr %62, align 8
  %64 = call i32 (ptr, ...) @errmsg(ptr noundef @.str.16, ptr noundef %63)
  call void @errfinish(ptr noundef @.str.1, i32 noundef 885, ptr noundef @__func__.CreateForeignServer)
  br label %65

65:                                               ; preds = %59, %57, %55
  unreachable

66:                                               ; No predecessors!
  br label %67

67:                                               ; preds = %66
  br label %68

68:                                               ; preds = %67
  br label %69

69:                                               ; preds = %68, %1
  %70 = load ptr, ptr %3, align 8
  %71 = getelementptr inbounds nuw %struct.CreateForeignServerStmt, ptr %70, i32 0, i32 4
  %72 = load ptr, ptr %71, align 8
  %73 = call ptr @GetForeignDataWrapperByName(ptr noundef %72, i1 noundef zeroext false)
  store ptr %73, ptr %14, align 8
  %74 = load ptr, ptr %14, align 8
  %75 = getelementptr inbounds nuw %struct.ForeignDataWrapper, ptr %74, i32 0, i32 0
  %76 = load i32, ptr %75, align 8
  %77 = load i32, ptr %10, align 4
  %78 = call i32 @object_aclcheck(i32 noundef 2328, i32 noundef %76, i32 noundef %77, i64 noundef 256)
  store i32 %78, ptr %11, align 4
  %79 = load i32, ptr %11, align 4
  %80 = icmp ne i32 %79, 0
  br i1 %80, label %81, label %86

81:                                               ; preds = %69
  %82 = load i32, ptr %11, align 4
  %83 = load ptr, ptr %14, align 8
  %84 = getelementptr inbounds nuw %struct.ForeignDataWrapper, ptr %83, i32 0, i32 2
  %85 = load ptr, ptr %84, align 8
  call void @aclcheck_error(i32 noundef %82, i32 noundef 16, ptr noundef %85)
  br label %86

86:                                               ; preds = %81, %69
  %87 = getelementptr inbounds [8 x i64], ptr %6, i64 0, i64 0
  call void @llvm.memset.p0.i64(ptr align 16 %87, i8 0, i64 64, i1 false)
  %88 = getelementptr inbounds [8 x i8], ptr %7, i64 0, i64 0
  call void @llvm.memset.p0.i64(ptr align 1 %88, i8 0, i64 8, i1 false)
  %89 = load ptr, ptr %4, align 8
  %90 = call i32 @GetNewOidWithIndex(ptr noundef %89, i32 noundef 113, i16 noundef signext 1)
  store i32 %90, ptr %9, align 4
  %91 = load i32, ptr %9, align 4
  %92 = call i64 @ObjectIdGetDatum(i32 noundef %91)
  %93 = getelementptr inbounds [8 x i64], ptr %6, i64 0, i64 0
  store i64 %92, ptr %93, align 16
  %94 = load ptr, ptr %3, align 8
  %95 = getelementptr inbounds nuw %struct.CreateForeignServerStmt, ptr %94, i32 0, i32 1
  %96 = load ptr, ptr %95, align 8
  %97 = call i64 @CStringGetDatum(ptr noundef %96)
  %98 = call i64 @DirectFunctionCall1Coll(ptr noundef @namein, i32 noundef 0, i64 noundef %97)
  %99 = getelementptr inbounds [8 x i64], ptr %6, i64 0, i64 1
  store i64 %98, ptr %99, align 8
  %100 = load i32, ptr %10, align 4
  %101 = call i64 @ObjectIdGetDatum(i32 noundef %100)
  %102 = getelementptr inbounds [8 x i64], ptr %6, i64 0, i64 2
  store i64 %101, ptr %102, align 16
  %103 = load ptr, ptr %14, align 8
  %104 = getelementptr inbounds nuw %struct.ForeignDataWrapper, ptr %103, i32 0, i32 0
  %105 = load i32, ptr %104, align 8
  %106 = call i64 @ObjectIdGetDatum(i32 noundef %105)
  %107 = getelementptr inbounds [8 x i64], ptr %6, i64 0, i64 3
  store i64 %106, ptr %107, align 8
  %108 = load ptr, ptr %3, align 8
  %109 = getelementptr inbounds nuw %struct.CreateForeignServerStmt, ptr %108, i32 0, i32 2
  %110 = load ptr, ptr %109, align 8
  %111 = icmp ne ptr %110, null
  br i1 %111, label %112, label %119

112:                                              ; preds = %86
  %113 = load ptr, ptr %3, align 8
  %114 = getelementptr inbounds nuw %struct.CreateForeignServerStmt, ptr %113, i32 0, i32 2
  %115 = load ptr, ptr %114, align 8
  %116 = call ptr @cstring_to_text(ptr noundef %115)
  %117 = call i64 @PointerGetDatum(ptr noundef %116)
  %118 = getelementptr inbounds [8 x i64], ptr %6, i64 0, i64 4
  store i64 %117, ptr %118, align 16
  br label %121

119:                                              ; preds = %86
  %120 = getelementptr inbounds [8 x i8], ptr %7, i64 0, i64 4
  store i8 1, ptr %120, align 1
  br label %121

121:                                              ; preds = %119, %112
  %122 = load ptr, ptr %3, align 8
  %123 = getelementptr inbounds nuw %struct.CreateForeignServerStmt, ptr %122, i32 0, i32 3
  %124 = load ptr, ptr %123, align 8
  %125 = icmp ne ptr %124, null
  br i1 %125, label %126, label %133

126:                                              ; preds = %121
  %127 = load ptr, ptr %3, align 8
  %128 = getelementptr inbounds nuw %struct.CreateForeignServerStmt, ptr %127, i32 0, i32 3
  %129 = load ptr, ptr %128, align 8
  %130 = call ptr @cstring_to_text(ptr noundef %129)
  %131 = call i64 @PointerGetDatum(ptr noundef %130)
  %132 = getelementptr inbounds [8 x i64], ptr %6, i64 0, i64 5
  store i64 %131, ptr %132, align 8
  br label %135

133:                                              ; preds = %121
  %134 = getelementptr inbounds [8 x i8], ptr %7, i64 0, i64 5
  store i8 1, ptr %134, align 1
  br label %135

135:                                              ; preds = %133, %126
  %136 = getelementptr inbounds [8 x i8], ptr %7, i64 0, i64 6
  store i8 1, ptr %136, align 1
  %137 = call i64 @PointerGetDatum(ptr noundef null)
  %138 = load ptr, ptr %3, align 8
  %139 = getelementptr inbounds nuw %struct.CreateForeignServerStmt, ptr %138, i32 0, i32 6
  %140 = load ptr, ptr %139, align 8
  %141 = load ptr, ptr %14, align 8
  %142 = getelementptr inbounds nuw %struct.ForeignDataWrapper, ptr %141, i32 0, i32 4
  %143 = load i32, ptr %142, align 4
  %144 = call i64 @transformGenericOptions(i32 noundef 1417, i64 noundef %137, ptr noundef %140, i32 noundef %143)
  store i64 %144, ptr %5, align 8
  %145 = load i64, ptr %5, align 8
  %146 = call ptr @DatumGetPointer(i64 noundef %145)
  %147 = icmp ne ptr %146, null
  br i1 %147, label %148, label %151

148:                                              ; preds = %135
  %149 = load i64, ptr %5, align 8
  %150 = getelementptr inbounds [8 x i64], ptr %6, i64 0, i64 7
  store i64 %149, ptr %150, align 8
  br label %153

151:                                              ; preds = %135
  %152 = getelementptr inbounds [8 x i8], ptr %7, i64 0, i64 7
  store i8 1, ptr %152, align 1
  br label %153

153:                                              ; preds = %151, %148
  %154 = load ptr, ptr %4, align 8
  %155 = getelementptr inbounds nuw %struct.RelationData, ptr %154, i32 0, i32 14
  %156 = load ptr, ptr %155, align 8
  %157 = getelementptr inbounds [8 x i64], ptr %6, i64 0, i64 0
  %158 = getelementptr inbounds [8 x i8], ptr %7, i64 0, i64 0
  %159 = call ptr @heap_form_tuple(ptr noundef %156, ptr noundef %157, ptr noundef %158)
  store ptr %159, ptr %8, align 8
  %160 = load ptr, ptr %4, align 8
  %161 = load ptr, ptr %8, align 8
  call void @CatalogTupleInsert(ptr noundef %160, ptr noundef %161)
  %162 = load ptr, ptr %8, align 8
  call void @heap_freetuple(ptr noundef %162)
  %163 = getelementptr inbounds nuw %struct.ObjectAddress, ptr %12, i32 0, i32 0
  store i32 1417, ptr %163, align 4
  %164 = load i32, ptr %9, align 4
  %165 = getelementptr inbounds nuw %struct.ObjectAddress, ptr %12, i32 0, i32 1
  store i32 %164, ptr %165, align 4
  %166 = getelementptr inbounds nuw %struct.ObjectAddress, ptr %12, i32 0, i32 2
  store i32 0, ptr %166, align 4
  %167 = getelementptr inbounds nuw %struct.ObjectAddress, ptr %13, i32 0, i32 0
  store i32 2328, ptr %167, align 4
  %168 = load ptr, ptr %14, align 8
  %169 = getelementptr inbounds nuw %struct.ForeignDataWrapper, ptr %168, i32 0, i32 0
  %170 = load i32, ptr %169, align 8
  %171 = getelementptr inbounds nuw %struct.ObjectAddress, ptr %13, i32 0, i32 1
  store i32 %170, ptr %171, align 4
  %172 = getelementptr inbounds nuw %struct.ObjectAddress, ptr %13, i32 0, i32 2
  store i32 0, ptr %172, align 4
  call void @recordDependencyOn(ptr noundef %12, ptr noundef %13, i32 noundef 110)
  %173 = load i32, ptr %9, align 4
  %174 = load i32, ptr %10, align 4
  call void @recordDependencyOnOwner(i32 noundef 1417, i32 noundef %173, i32 noundef %174)
  call void @recordDependencyOnCurrentExtension(ptr noundef %12, i1 noundef zeroext false)
  br label %175

175:                                              ; preds = %153
  %176 = load ptr, ptr @object_access_hook, align 8
  %177 = icmp ne ptr %176, null
  br i1 %177, label %178, label %180

178:                                              ; preds = %175
  %179 = load i32, ptr %9, align 4
  call void @RunObjectPostCreateHook(i32 noundef 1417, i32 noundef %179, i32 noundef 0, i1 noundef zeroext false)
  br label %180

180:                                              ; preds = %178, %175
  br label %181

181:                                              ; preds = %180
  br label %182

182:                                              ; preds = %181
  %183 = load ptr, ptr %4, align 8
  call void @table_close(ptr noundef %183, i32 noundef 3)
  call void @llvm.memcpy.p0.p0.i64(ptr align 4 %2, ptr align 4 %12, i64 12, i1 false)
  store i32 1, ptr %15, align 4
  br label %184

184:                                              ; preds = %182, %51
  call void @llvm.lifetime.end.p0(i64 8, ptr %14) #9
  call void @llvm.lifetime.end.p0(i64 12, ptr %13) #9
  call void @llvm.lifetime.end.p0(i64 12, ptr %12) #9
  call void @llvm.lifetime.end.p0(i64 4, ptr %11) #9
  call void @llvm.lifetime.end.p0(i64 4, ptr %10) #9
  call void @llvm.lifetime.end.p0(i64 4, ptr %9) #9
  call void @llvm.lifetime.end.p0(i64 8, ptr %8) #9
  call void @llvm.lifetime.end.p0(i64 8, ptr %7) #9
  call void @llvm.lifetime.end.p0(i64 64, ptr %6) #9
  call void @llvm.lifetime.end.p0(i64 8, ptr %5) #9
  call void @llvm.lifetime.end.p0(i64 8, ptr %4) #9
  call void @llvm.memcpy.p0.p0.i64(ptr align 8 %16, ptr align 4 %2, i64 12, i1 false)
  %185 = load { i64, i32 }, ptr %16, align 8
  ret { i64, i32 } %185
}