; Function Attrs: nounwind uwtable
define dso_local { i64, i32 } @CreateForeignServer(ptr noundef readonly captures(none) %0) local_unnamed_addr #0 {
  %2 = alloca [8 x i64], align 16
  %3 = alloca [8 x i8], align 8
  %4 = alloca %struct.ObjectAddress, align 4
  %5 = alloca %struct.ObjectAddress, align 4
  call void @llvm.lifetime.start.p0(i64 64, ptr nonnull %2) #9
  call void @llvm.lifetime.start.p0(i64 8, ptr nonnull %3) #9
  call void @llvm.lifetime.start.p0(i64 12, ptr nonnull %4) #9
  call void @llvm.lifetime.start.p0(i64 12, ptr nonnull %5) #9
  %6 = tail call ptr @table_open(i32 noundef 1417, i32 noundef 3) #9
  %7 = tail call i32 @GetUserId() #9
  %8 = getelementptr inbounds nuw i8, ptr %0, i64 8
  %9 = load ptr, ptr %8, align 8
  %10 = tail call i32 @get_foreign_server_oid(ptr noundef %9, i1 noundef zeroext true) #9
  %.not = icmp eq i32 %10, 0
  br i1 %.not, label %29, label %11

11:                                               ; preds = %1
  %12 = getelementptr inbounds nuw i8, ptr %0, i64 40
  %13 = load i8, ptr %12, align 8, !range !4, !noundef !5
  %14 = trunc nuw i8 %13 to i1
  br i1 %14, label %15, label %24

15:                                               ; preds = %11
  store i32 1417, ptr %4, align 4
  %16 = getelementptr inbounds nuw i8, ptr %4, i64 4
  store i32 %10, ptr %16, align 4
  %17 = getelementptr inbounds nuw i8, ptr %4, i64 8
  store i32 0, ptr %17, align 4
  call void @checkMembershipInCurrentExtension(ptr noundef nonnull %4) #9
  %18 = call zeroext i1 @errstart(i32 noundef 18, ptr noundef null) #9
  br i1 %18, label %19, label %23

19:                                               ; preds = %15
  %20 = call i32 @errcode(i32 noundef 290948) #9
  %21 = load ptr, ptr %8, align 8
  %22 = call i32 (ptr, ...) @errmsg(ptr noundef nonnull @.str.15, ptr noundef %21) #9
  call void @errfinish(ptr noundef nonnull @.str.1, i32 noundef 877, ptr noundef nonnull @__func__.CreateForeignServer) #9
  br label %23

23:                                               ; preds = %19, %15
  call void @table_close(ptr noundef %6, i32 noundef 3) #9
  %.sroa.3.0.copyload = load i32, ptr getelementptr inbounds nuw (i8, ptr @InvalidObjectAddress, i64 8), align 4
  br label %90

24:                                               ; preds = %11
  %25 = tail call zeroext i1 @errstart_cold(i32 noundef 21, ptr noundef null) #11
  tail call void @llvm.assume(i1 %25)
  %26 = tail call i32 @errcode(i32 noundef 290948) #9
  %27 = load ptr, ptr %8, align 8
  %28 = tail call i32 (ptr, ...) @errmsg(ptr noundef nonnull @.str.16, ptr noundef %27) #9
  tail call void @errfinish(ptr noundef nonnull @.str.1, i32 noundef 885, ptr noundef nonnull @__func__.CreateForeignServer) #9
  unreachable

29:                                               ; preds = %1
  %30 = getelementptr inbounds nuw i8, ptr %0, i64 32
  %31 = load ptr, ptr %30, align 8
  %32 = tail call ptr @GetForeignDataWrapperByName(ptr noundef %31, i1 noundef zeroext false) #9
  %33 = load i32, ptr %32, align 8
  %34 = tail call i32 @object_aclcheck(i32 noundef 2328, i32 noundef %33, i32 noundef %7, i64 noundef 256) #9
  %.not41 = icmp eq i32 %34, 0
  br i1 %.not41, label %38, label %35

35:                                               ; preds = %29
  %36 = getelementptr inbounds nuw i8, ptr %32, i64 8
  %37 = load ptr, ptr %36, align 8
  tail call void @aclcheck_error(i32 noundef %34, i32 noundef 16, ptr noundef %37) #9
  br label %38

38:                                               ; preds = %35, %29
  %39 = getelementptr inbounds nuw i8, ptr %2, i64 32
  call void @llvm.memset.p0.i64(ptr noundef nonnull align 16 dereferenceable(64) %39, i8 0, i64 32, i1 false)
  store i64 281474976710656, ptr %3, align 8
  %40 = tail call i32 @GetNewOidWithIndex(ptr noundef %6, i32 noundef 113, i16 noundef signext 1) #9
  %41 = zext i32 %40 to i64
  store i64 %41, ptr %2, align 16
  %42 = load ptr, ptr %8, align 8
  %43 = ptrtoint ptr %42 to i64
  %44 = tail call i64 @DirectFunctionCall1Coll(ptr noundef nonnull @namein, i32 noundef 0, i64 noundef %43) #9
  %45 = getelementptr inbounds nuw i8, ptr %2, i64 8
  store i64 %44, ptr %45, align 8
  %46 = zext i32 %7 to i64
  %47 = getelementptr inbounds nuw i8, ptr %2, i64 16
  store i64 %46, ptr %47, align 16
  %48 = load i32, ptr %32, align 8
  %49 = zext i32 %48 to i64
  %50 = getelementptr inbounds nuw i8, ptr %2, i64 24
  store i64 %49, ptr %50, align 8
  %51 = getelementptr inbounds nuw i8, ptr %0, i64 16
  %52 = load ptr, ptr %51, align 8
  %.not42 = icmp eq ptr %52, null
  br i1 %.not42, label %57, label %53

53:                                               ; preds = %38
  %54 = tail call ptr @cstring_to_text(ptr noundef nonnull %52) #9
  %55 = ptrtoint ptr %54 to i64
  %56 = getelementptr inbounds nuw i8, ptr %2, i64 32
  store i64 %55, ptr %56, align 16
  br label %59

57:                                               ; preds = %38
  %58 = getelementptr inbounds nuw i8, ptr %3, i64 4
  store i8 1, ptr %58, align 4
  br label %59

59:                                               ; preds = %57, %53
  %60 = getelementptr inbounds nuw i8, ptr %0, i64 24
  %61 = load ptr, ptr %60, align 8
  %.not43 = icmp eq ptr %61, null
  br i1 %.not43, label %66, label %62

62:                                               ; preds = %59
  %63 = tail call ptr @cstring_to_text(ptr noundef nonnull %61) #9
  %64 = ptrtoint ptr %63 to i64
  %65 = getelementptr inbounds nuw i8, ptr %2, i64 40
  store i64 %64, ptr %65, align 8
  br label %68

66:                                               ; preds = %59
  %67 = getelementptr inbounds nuw i8, ptr %3, i64 5
  store i8 1, ptr %67, align 1
  br label %68

68:                                               ; preds = %66, %62
  %69 = getelementptr inbounds nuw i8, ptr %0, i64 48
  %70 = load ptr, ptr %69, align 8
  %71 = getelementptr inbounds nuw i8, ptr %32, i64 20
  %72 = load i32, ptr %71, align 4
  %73 = tail call i64 @transformGenericOptions(i32 noundef 1417, i64 noundef 0, ptr noundef %70, i32 noundef %72)
  %.not44 = icmp eq i64 %73, 0
  br i1 %.not44, label %76, label %74

74:                                               ; preds = %68
  %75 = getelementptr inbounds nuw i8, ptr %2, i64 56
  store i64 %73, ptr %75, align 8
  br label %78

76:                                               ; preds = %68
  %77 = getelementptr inbounds nuw i8, ptr %3, i64 7
  store i8 1, ptr %77, align 1
  br label %78

78:                                               ; preds = %76, %74
  %79 = getelementptr inbounds nuw i8, ptr %6, i64 64
  %80 = load ptr, ptr %79, align 8
  %81 = call ptr @heap_form_tuple(ptr noundef %80, ptr noundef nonnull %2, ptr noundef nonnull %3) #9
  call void @CatalogTupleInsert(ptr noundef %6, ptr noundef %81) #9
  call void @heap_freetuple(ptr noundef %81) #9
  store i32 1417, ptr %4, align 4
  %82 = getelementptr inbounds nuw i8, ptr %4, i64 4
  store i32 %40, ptr %82, align 4
  %83 = getelementptr inbounds nuw i8, ptr %4, i64 8
  store i32 0, ptr %83, align 4
  store i32 2328, ptr %5, align 4
  %84 = load i32, ptr %32, align 8
  %85 = getelementptr inbounds nuw i8, ptr %5, i64 4
  store i32 %84, ptr %85, align 4
  %86 = getelementptr inbounds nuw i8, ptr %5, i64 8
  store i32 0, ptr %86, align 4
  call void @recordDependencyOn(ptr noundef nonnull %4, ptr noundef nonnull %5, i32 noundef 110) #9
  call void @recordDependencyOnOwner(i32 noundef 1417, i32 noundef %40, i32 noundef %7) #9
  call void @recordDependencyOnCurrentExtension(ptr noundef nonnull %4, i1 noundef zeroext false) #9
  %87 = load ptr, ptr @object_access_hook, align 8
  %.not45 = icmp eq ptr %87, null
  br i1 %.not45, label %89, label %88

88:                                               ; preds = %78
  call void @RunObjectPostCreateHook(i32 noundef 1417, i32 noundef %40, i32 noundef 0, i1 noundef zeroext false) #9
  br label %89

89:                                               ; preds = %88, %78
  call void @table_close(ptr noundef nonnull %6, i32 noundef 3) #9
  %.sroa.3.0.copyload37 = load i32, ptr %83, align 4
  br label %90

90:                                               ; preds = %89, %23
  %.sroa.035.0.in = phi ptr [ @InvalidObjectAddress, %23 ], [ %4, %89 ]
  %.sroa.3.0 = phi i32 [ %.sroa.3.0.copyload, %23 ], [ %.sroa.3.0.copyload37, %89 ]
  %.sroa.035.0 = load i64, ptr %.sroa.035.0.in, align 4
  call void @llvm.lifetime.end.p0(i64 12, ptr nonnull %5) #9
  call void @llvm.lifetime.end.p0(i64 12, ptr nonnull %4) #9
  call void @llvm.lifetime.end.p0(i64 8, ptr nonnull %3) #9
  call void @llvm.lifetime.end.p0(i64 64, ptr nonnull %2) #9
  %.fca.0.insert = insertvalue { i64, i32 } poison, i64 %.sroa.035.0, 0
  %.fca.1.insert = insertvalue { i64, i32 } %.fca.0.insert, i32 %.sroa.3.0, 1
  ret { i64, i32 } %.fca.1.insert
}